(dp0
S'METTS MARK'
p1
(dp2
S'to_messages'
p3
I807
sS'deferral_payments'
p4
S'NaN'
p5
sS'bonus'
p6
I600000
sS'person_to_poi_ratio'
p7
F0.034482758620689655
sS'total_stock_value'
p8
I585062
sS'expenses'
p9
I94299
sS'from_poi_to_this_person'
p10
I38
sS'from_this_person_to_poi'
p11
I1
sS'poi'
p12
I00
sS'deferred_income'
p13
g5
sS'restricted_stock'
p14
I585062
sS'long_term_incentive'
p15
g5
sS'salary'
p16
I365788
sS'poi_to_person_ratio'
p17
F0.04708798017348203
sS'total_payments'
p18
I1061827
sS'loan_advances'
p19
g5
sS'email_address'
p20
S'mark.metts@enron.com'
p21
sS'restricted_stock_deferred'
p22
g5
sS'shared_receipt_with_poi'
p23
I702
sS'exercised_stock_options'
p24
g5
sS'from_messages'
p25
I29
sS'other'
p26
I1740
sS'director_fees'
p27
g5
ssS'BAXTER JOHN C'
p28
(dp29
g3
I0
sg4
I1295738
sg6
I1200000
sg7
I0
sg8
I10623258
sg9
I11200
sg10
I0
sg11
I0
sg12
I00
sg13
I-1386055
sg14
I3942714
sg15
I1586055
sg16
I267102
sg17
I0
sg18
I5634343
sg19
g5
sg20
g5
sg22
g5
sg23
g5
sg24
I6680544
sg25
I0
sg26
I2660303
sg27
g5
ssS'ELLIOTT STEVEN'
p30
(dp31
g3
I0
sg4
g5
sg6
I350000
sg7
I0
sg8
I6678735
sg9
I78552
sg10
I0
sg11
I0
sg12
I00
sg13
I-400729
sg14
I1788391
sg15
g5
sg16
I170941
sg17
I0
sg18
I211725
sg19
g5
sg20
S'steven.elliott@enron.com'
p32
sg22
g5
sg23
g5
sg24
I4890344
sg25
I0
sg26
I12961
sg27
g5
ssS'CORDES WILLIAM R'
p33
(dp34
g3
I764
sg4
g5
sg6
g5
sg7
F0.0
sg8
I1038185
sg9
I0
sg10
I10
sg11
I0
sg12
I00
sg13
g5
sg14
I386335
sg15
g5
sg16
I0
sg17
F0.013089005235602094
sg18
g5
sg19
g5
sg20
S'bill.cordes@enron.com'
p35
sg22
g5
sg23
I58
sg24
I651850
sg25
I12
sg26
g5
sg27
g5
ssS'HANNON KEVIN P'
p36
(dp37
g3
I1045
sg4
g5
sg6
I1500000
sg7
F0.65625
sg8
I6391065
sg9
I34039
sg10
I32
sg11
I21
sg12
I01
sg13
I-3117011
sg14
I853064
sg15
I1617011
sg16
I243293
sg17
F0.03062200956937799
sg18
I288682
sg19
g5
sg20
S'kevin.hannon@enron.com'
p38
sg22
g5
sg23
I1035
sg24
I5538001
sg25
I32
sg26
I11350
sg27
g5
ssS'MORDAUNT KRISTINA M'
p39
(dp40
g3
I0
sg4
g5
sg6
I325000
sg7
I0
sg8
I208510
sg9
I35018
sg10
I0
sg11
I0
sg12
I00
sg13
g5
sg14
I208510
sg15
g5
sg16
I267093
sg17
I0
sg18
I628522
sg19
g5
sg20
S'kristina.mordaunt@enron.com'
p41
sg22
g5
sg23
g5
sg24
g5
sg25
I0
sg26
I1411
sg27
g5
ssS'MEYER ROCKFORD G'
p42
(dp43
g3
I232
sg4
I1848227
sg6
g5
sg7
F0.0
sg8
I955873
sg9
I0
sg10
I0
sg11
I0
sg12
I00
sg13
g5
sg14
I462384
sg15
g5
sg16
I0
sg17
F0.0
sg18
I1848227
sg19
g5
sg20
S'rockford.meyer@enron.com'
p44
sg22
g5
sg23
I22
sg24
I493489
sg25
I28
sg26
g5
sg27
g5
ssS'MCMAHON JEFFREY'
p45
(dp46
g3
I2355
sg4
g5
sg6
I2600000
sg7
F0.5416666666666666
sg8
I1662855
sg9
I137108
sg10
I58
sg11
I26
sg12
I00
sg13
g5
sg14
I558801
sg15
I694862
sg16
I370448
sg17
F0.024628450106157114
sg18
I4099771
sg19
g5
sg20
S'jeffrey.mcmahon@enron.com'
p47
sg22
g5
sg23
I2228
sg24
I1104054
sg25
I48
sg26
I297353
sg27
g5
ssS'HORTON STANLEY C'
p48
(dp49
g3
I2350
sg4
I3131860
sg6
g5
sg7
F0.013979496738117428
sg8
I7256648
sg9
I0
sg10
I44
sg11
I15
sg12
I00
sg13
g5
sg14
I2046079
sg15
g5
sg16
I0
sg17
F0.01872340425531915
sg18
I3131860
sg19
g5
sg20
S'stanley.horton@enron.com'
p50
sg22
g5
sg23
I1074
sg24
I5210569
sg25
I1073
sg26
g5
sg27
g5
ssS'PIPER GREGORY F'
p51
(dp52
g3
I1238
sg4
I1130036
sg6
I400000
sg7
F0.21621621621621623
sg8
I880290
sg9
I43057
sg10
I61
sg11
I48
sg12
I00
sg13
I-33333
sg14
I409554
sg15
g5
sg16
I197091
sg17
F0.049273021001615507
sg18
I1737629
sg19
g5
sg20
S'greg.piper@enron.com'
p53
sg22
I-409554
sg23
I742
sg24
I880290
sg25
I222
sg26
I778
sg27
g5
ssS'HUMPHREY GENE E'
p54
(dp55
g3
I128
sg4
I2964506
sg6
g5
sg7
F1.0
sg8
I2282768
sg9
I4994
sg10
I10
sg11
I17
sg12
I00
sg13
g5
sg14
g5
sg15
g5
sg16
I130724
sg17
F0.078125
sg18
I3100224
sg19
g5
sg20
S'gene.humphrey@enron.com'
p56
sg22
g5
sg23
I119
sg24
I2282768
sg25
I17
sg26
g5
sg27
g5
ssS'UMANOFF ADAM S'
p57
(dp58
g3
I111
sg4
g5
sg6
I788750
sg7
F0.0
sg8
I0
sg9
I53122
sg10
I12
sg11
I0
sg12
I00
sg13
g5
sg14
g5
sg15
g5
sg16
I288589
sg17
F0.10810810810810811
sg18
I1130461
sg19
g5
sg20
S'adam.umanoff@enron.com'
p59
sg22
g5
sg23
I41
sg24
g5
sg25
I18
sg26
g5
sg27
g5
ssS'BLACHMAN JEREMY M'
p60
(dp61
g3
I2475
sg4
g5
sg6
I850000
sg7
F0.14285714285714285
sg8
I954354
sg9
I84208
sg10
I25
sg11
I2
sg12
I00
sg13
g5
sg14
I189041
sg15
I831809
sg16
I248546
sg17
F0.010101010101010102
sg18
I2014835
sg19
g5
sg20
S'jeremy.blachman@enron.com'
p62
sg22
g5
sg23
I2326
sg24
I765313
sg25
I14
sg26
I272
sg27
g5
ssS'SUNDE MARTIN'
p63
(dp64
g3
I2647
sg4
g5
sg6
I700000
sg7
F0.34210526315789475
sg8
I698920
sg9
I0
sg10
I37
sg11
I13
sg12
I00
sg13
g5
sg14
I698920
sg15
I476451
sg16
I257486
sg17
F0.013978088401964487
sg18
I1545059
sg19
g5
sg20
S'marty.sunde@enron.com'
p65
sg22
g5
sg23
I2565
sg24
g5
sg25
I38
sg26
I111122
sg27
g5
ssS'GIBBS DANA R'
p66
(dp67
g3
I169
sg4
I504610
sg6
g5
sg7
F0.0
sg8
I2218275
sg9
I0
sg10
I0
sg11
I0
sg12
I00
sg13
g5
sg14
g5
sg15
I461912
sg16
I0
sg17
F0.0
sg18
I966522
sg19
g5
sg20
S'dana.gibbs@enron.com'
p68
sg22
g5
sg23
I23
sg24
I2218275
sg25
I12
sg26
g5
sg27
g5
ssS'LOWRY CHARLES P'
p69
(dp70
g3
I0
sg4
g5
sg6
g5
sg7
I0
sg8
I372205
sg9
I0
sg10
I0
sg11
I0
sg12
I00
sg13
g5
sg14
I153686
sg15
g5
sg16
I0
sg17
I0
sg18
g5
sg19
g5
sg20
g5
sg22
I-153686
sg23
g5
sg24
I372205
sg25
I0
sg26
g5
sg27
g5
ssS'COLWELL WESLEY'
p71
(dp72
g3
I1758
sg4
I27610
sg6
I1200000
sg7
F0.275
sg8
I698242
sg9
I16514
sg10
I240
sg11
I11
sg12
I01
sg13
I-144062
sg14
I698242
sg15
g5
sg16
I288542
sg17
F0.13651877133105803
sg18
I1490344
sg19
g5
sg20
S'wes.colwell@enron.com'
p73
sg22
g5
sg23
I1132
sg24
g5
sg25
I40
sg26
I101740
sg27
g5
ssS'MULLER MARK S'
p74
(dp75
g3
I136
sg4
I842924
sg6
I1100000
sg7
F0.0
sg8
I1416848
sg9
I0
sg10
I12
sg11
I0
sg12
I00
sg13
I-719000
sg14
I360528
sg15
I1725545
sg16
I251654
sg17
F0.08823529411764706
sg18
I3202070
sg19
g5
sg20
S's..muller@enron.com'
p76
sg22
g5
sg23
I114
sg24
I1056320
sg25
I16
sg26
I947
sg27
g5
ssS'JACKSON CHARLENE R'
p77
(dp78
g3
I258
sg4
g5
sg6
I250000
sg7
F0.3392857142857143
sg8
I725735
sg9
I10181
sg10
I25
sg11
I19
sg12
I00
sg13
g5
sg14
I540672
sg15
g5
sg16
I288558
sg17
F0.09689922480620156
sg18
I551174
sg19
g5
sg20
S'charlene.jackson@enron.com'
p79
sg22
g5
sg23
I117
sg24
I185063
sg25
I56
sg26
I2435
sg27
g5
ssS'WESTFAHL RICHARD K'
p80
(dp81
g3
I0
sg4
g5
sg6
g5
sg7
I0
sg8
I384930
sg9
I51870
sg10
I0
sg11
I0
sg12
I00
sg13
I-10800
sg14
I384930
sg15
I256191
sg16
I63744
sg17
I0
sg18
I762135
sg19
g5
sg20
S'dick.westfahl@enron.com'
p82
sg22
g5
sg23
g5
sg24
g5
sg25
I0
sg26
I401130
sg27
g5
ssS'WALTERS GARETH W'
p83
(dp84
g3
I0
sg4
I53625
sg6
g5
sg7
I0
sg8
I1030329
sg9
I33785
sg10
I0
sg11
I0
sg12
I00
sg13
g5
sg14
g5
sg15
g5
sg16
I0
sg17
I0
sg18
I87410
sg19
g5
sg20
g5
sg22
g5
sg23
g5
sg24
I1030329
sg25
I0
sg26
g5
sg27
g5
ssS'WALLS JR ROBERT H'
p85
(dp86
g3
I671
sg4
g5
sg6
I850000
sg7
F0.0
sg8
I5898997
sg9
I50936
sg10
I17
sg11
I0
sg12
I00
sg13
g5
sg14
I1552453
sg15
I540751
sg16
I357091
sg17
F0.02533532041728763
sg18
I1798780
sg19
g5
sg20
S'rob.walls@enron.com'
p87
sg22
g5
sg23
I215
sg24
I4346544
sg25
I146
sg26
I2
sg27
g5
ssS'KITCHEN LOUISE'
p88
(dp89
g3
I8305
sg4
g5
sg6
I3100000
sg7
F0.11226851851851852
sg8
I547143
sg9
I5774
sg10
I251
sg11
I194
sg12
I00
sg13
g5
sg14
I466101
sg15
g5
sg16
I271442
sg17
F0.030222757375075255
sg18
I3471141
sg19
g5
sg20
S'louise.kitchen@enron.com'
p90
sg22
g5
sg23
I3669
sg24
I81042
sg25
I1728
sg26
I93925
sg27
g5
ssS'CHAN RONNIE'
p91
(dp92
g3
I0
sg4
g5
sg6
g5
sg7
I0
sg8
I0
sg9
I0
sg10
I0
sg11
I0
sg12
I00
sg13
I-98784
sg14
I32460
sg15
g5
sg16
I0
sg17
I0
sg18
g5
sg19
g5
sg20
g5
sg22
I-32460
sg23
g5
sg24
g5
sg25
I0
sg26
g5
sg27
I98784
ssS'BELFER ROBERT'
p93
(dp94
g3
I0
sg4
I-102500
sg6
g5
sg7
I0
sg8
I0
sg9
I0
sg10
I0
sg11
I0
sg12
I00
sg13
g5
sg14
g5
sg15
g5
sg16
I0
sg17
I0
sg18
I102500
sg19
g5
sg20
g5
sg22
I44093
sg23
g5
sg24
I3285
sg25
I0
sg26
g5
sg27
I3285
ssS'SHANKMAN JEFFREY A'
p95
(dp96
g3
I3221
sg4
g5
sg6
I2000000
sg7
F0.030958597538232
sg8
I2072035
sg9
I178979
sg10
I94
sg11
I83
sg12
I00
sg13
g5
sg14
I630137
sg15
I554422
sg16
I304110
sg17
F0.029183483390251473
sg18
I3038702
sg19
g5
sg20
S'jeffrey.shankman@enron.com'
p97
sg22
g5
sg23
I1730
sg24
I1441898
sg25
I2681
sg26
I1191
sg27
g5
ssS'WODRASKA JOHN'
p98
(dp99
g3
I0
sg4
g5
sg6
g5
sg7
I0
sg8
I0
sg9
I0
sg10
I0
sg11
I0
sg12
I00
sg13
g5
sg14
g5
sg15
g5
sg16
I0
sg17
I0
sg18
I189583
sg19
g5
sg20
S'john.wodraska@enron.com'
p100
sg22
g5
sg23
g5
sg24
g5
sg25
I0
sg26
I189583
sg27
g5
ssS'BERGSIEKER RICHARD P'
p101
(dp102
g3
I383
sg4
g5
sg6
I250000
sg7
F0.0
sg8
I659249
sg9
I59175
sg10
I4
sg11
I0
sg12
I00
sg13
I-485813
sg14
I659249
sg15
I180250
sg16
I187922
sg17
F0.010443864229765013
sg18
I618850
sg19
g5
sg20
S'rick.bergsieker@enron.com'
p103
sg22
g5
sg23
I233
sg24
g5
sg25
I59
sg26
I427316
sg27
g5
ssS'URQUHART JOHN A'
p104
(dp105
g3
I0
sg4
g5
sg6
g5
sg7
I0
sg8
I0
sg9
I228656
sg10
I0
sg11
I0
sg12
I00
sg13
I-36666
sg14
g5
sg15
g5
sg16
I0
sg17
I0
sg18
I228656
sg19
g5
sg20
g5
sg22
g5
sg23
g5
sg24
g5
sg25
I0
sg26
g5
sg27
I36666
ssS'BIBI PHILIPPE A'
p106
(dp107
g3
I1607
sg4
g5
sg6
I1000000
sg7
F0.2
sg8
I1843816
sg9
I38559
sg10
I23
sg11
I8
sg12
I00
sg13
g5
sg14
I378082
sg15
I369721
sg16
I213625
sg17
F0.01431238332296204
sg18
I2047593
sg19
g5
sg20
S'philippe.bibi@enron.com'
p108
sg22
g5
sg23
I1336
sg24
I1465734
sg25
I40
sg26
I425688
sg27
g5
ssS'RIEKER PAULA H'
p109
(dp110
g3
I1328
sg4
I214678
sg6
I700000
sg7
F0.5853658536585366
sg8
I1918887
sg9
I33271
sg10
I35
sg11
I48
sg12
I01
sg13
I-100000
sg14
I283649
sg15
g5
sg16
I249201
sg17
F0.02635542168674699
sg18
I1099100
sg19
g5
sg20
S'paula.rieker@enron.com'
p111
sg22
g5
sg23
I1258
sg24
I1635238
sg25
I82
sg26
I1950
sg27
g5
ssS'WHALEY DAVID A'
p112
(dp113
g3
I0
sg4
g5
sg6
g5
sg7
I0
sg8
I98718
sg9
I0
sg10
I0
sg11
I0
sg12
I00
sg13
g5
sg14
g5
sg15
g5
sg16
I0
sg17
I0
sg18
g5
sg19
g5
sg20
g5
sg22
g5
sg23
g5
sg24
I98718
sg25
I0
sg26
g5
sg27
g5
ssS'BECK SALLY W'
p114
(dp115
g3
I7315
sg4
g5
sg6
I700000
sg7
F0.08887865530739121
sg8
I126027
sg9
I37172
sg10
I144
sg11
I386
sg12
I00
sg13
g5
sg14
I126027
sg15
g5
sg16
I231330
sg17
F0.01968557758031442
sg18
I969068
sg19
g5
sg20
S'sally.beck@enron.com'
p116
sg22
g5
sg23
I2639
sg24
g5
sg25
I4343
sg26
I566
sg27
g5
ssS'HAUG DAVID L'
p117
(dp118
g3
I573
sg4
g5
sg6
g5
sg7
F0.3684210526315789
sg8
I2217299
sg9
I475
sg10
I4
sg11
I7
sg12
I00
sg13
g5
sg14
I2217299
sg15
g5
sg16
I0
sg17
F0.006980802792321117
sg18
I475
sg19
g5
sg20
S'david.haug@enron.com'
p119
sg22
g5
sg23
I471
sg24
g5
sg25
I19
sg26
g5
sg27
g5
ssS'ECHOLS JOHN B'
p120
(dp121
g3
I0
sg4
g5
sg6
I200000
sg7
I0
sg8
I1008941
sg9
I21530
sg10
I0
sg11
I0
sg12
I00
sg13
g5
sg14
I407503
sg15
I2234774
sg16
I182245
sg17
I0
sg18
I2692324
sg19
g5
sg20
S'john.echols@enron.com'
p122
sg22
g5
sg23
g5
sg24
I601438
sg25
I0
sg26
I53775
sg27
g5
ssS'MENDELSOHN JOHN'
p123
(dp124
g3
I0
sg4
g5
sg6
g5
sg7
I0
sg8
I0
sg9
I148
sg10
I0
sg11
I0
sg12
I00
sg13
I-103750
sg14
g5
sg15
g5
sg16
I0
sg17
I0
sg18
I148
sg19
g5
sg20
g5
sg22
g5
sg23
g5
sg24
g5
sg25
I0
sg26
g5
sg27
I103750
ssS'HICKERSON GARY J'
p125
(dp126
g3
I1320
sg4
g5
sg6
I1700000
sg7
F0.037037037037037035
sg8
I441096
sg9
I98849
sg10
I40
sg11
I1
sg12
I00
sg13
g5
sg14
I441096
sg15
I69223
sg16
I211788
sg17
F0.030303030303030304
sg18
I2081796
sg19
g5
sg20
S'gary.hickerson@enron.com'
p127
sg22
g5
sg23
I900
sg24
g5
sg25
I27
sg26
I1936
sg27
g5
ssS'CLINE KENNETH W'
p128
(dp129
g3
I0
sg4
g5
sg6
g5
sg7
I0
sg8
I189518
sg9
I0
sg10
I0
sg11
I0
sg12
I00
sg13
g5
sg14
I662086
sg15
g5
sg16
I0
sg17
I0
sg18
g5
sg19
g5
sg20
g5
sg22
I-472568
sg23
g5
sg24
g5
sg25
I0
sg26
g5
sg27
g5
ssS'LEWIS RICHARD'
p130
(dp131
g3
I952
sg4
g5
sg6
g5
sg7
F0.0
sg8
I850477
sg9
I0
sg10
I10
sg11
I0
sg12
I00
sg13
g5
sg14
g5
sg15
g5
sg16
I0
sg17
F0.01050420168067227
sg18
g5
sg19
g5
sg20
S'richard.lewis@enron.com'
p132
sg22
g5
sg23
I739
sg24
I850477
sg25
I26
sg26
g5
sg27
g5
ssS'HAYES ROBERT E'
p133
(dp134
g3
I504
sg4
I7961
sg6
g5
sg7
F0.0
sg8
I151418
sg9
I0
sg10
I16
sg11
I0
sg12
I00
sg13
g5
sg14
I151418
sg15
g5
sg16
I0
sg17
F0.031746031746031744
sg18
I7961
sg19
g5
sg20
S'robert.hayes@enron.com'
p135
sg22
g5
sg23
I50
sg24
g5
sg25
I12
sg26
g5
sg27
g5
ssS'MCCARTY DANNY J'
p136
(dp137
g3
I1433
sg4
g5
sg6
g5
sg7
F0.009302325581395349
sg8
I758931
sg9
I0
sg10
I25
sg11
I2
sg12
I00
sg13
g5
sg14
I94556
sg15
g5
sg16
I0
sg17
F0.017445917655268667
sg18
g5
sg19
g5
sg20
S'danny.mccarty@enron.com'
p138
sg22
g5
sg23
I508
sg24
I664375
sg25
I215
sg26
g5
sg27
g5
ssS'KOPPER MICHAEL J'
p139
(dp140
g3
I0
sg4
g5
sg6
I800000
sg7
I0
sg8
I985032
sg9
I118134
sg10
I0
sg11
I0
sg12
I01
sg13
g5
sg14
I985032
sg15
I602671
sg16
I224305
sg17
I0
sg18
I2652612
sg19
g5
sg20
S'michael.kopper@enron.com'
p141
sg22
g5
sg23
g5
sg24
g5
sg25
I0
sg26
I907502
sg27
g5
ssS'LEFF DANIEL P'
p142
(dp143
g3
I2822
sg4
g5
sg6
I1000000
sg7
F0.2222222222222222
sg8
I360528
sg9
I0
sg10
I67
sg11
I14
sg12
I00
sg13
g5
sg14
I360528
sg15
I1387399
sg16
I273746
sg17
F0.02374202693125443
sg18
I2664228
sg19
g5
sg20
S'dan.leff@enron.com'
p144
sg22
g5
sg23
I2672
sg24
g5
sg25
I63
sg26
I3083
sg27
g5
ssS'LAVORATO JOHN J'
p145
(dp146
g3
I7259
sg4
g5
sg6
I8000000
sg7
F0.15899419729206962
sg8
I5167144
sg9
I49537
sg10
I528
sg11
I411
sg12
I00
sg13
g5
sg14
I1008149
sg15
I2035380
sg16
I339288
sg17
F0.07273729163796666
sg18
I10425757
sg19
g5
sg20
S'john.lavorato@enron.com'
p147
sg22
g5
sg23
I3962
sg24
I4158995
sg25
I2585
sg26
I1552
sg27
g5
ssS'BERBERIAN DAVID'
p148
(dp149
g3
I0
sg4
g5
sg6
g5
sg7
I0
sg8
I2493616
sg9
I11892
sg10
I0
sg11
I0
sg12
I00
sg13
g5
sg14
I869220
sg15
g5
sg16
I216582
sg17
I0
sg18
I228474
sg19
g5
sg20
S'david.berberian@enron.com'
p150
sg22
g5
sg23
g5
sg24
I1624396
sg25
I0
sg26
g5
sg27
g5
ssS'DETMERING TIMOTHY J'
p151
(dp152
g3
I0
sg4
I875307
sg6
I425000
sg7
I0
sg8
I2027865
sg9
I52255
sg10
I0
sg11
I0
sg12
I00
sg13
I-775241
sg14
I315068
sg15
I415657
sg16
I210500
sg17
I0
sg18
I1204583
sg19
g5
sg20
S'timothy.detmering@enron.com'
p153
sg22
I-315068
sg23
g5
sg24
I2027865
sg25
I0
sg26
I1105
sg27
g5
ssS'WAKEHAM JOHN'
p154
(dp155
g3
I0
sg4
g5
sg6
g5
sg7
I0
sg8
I0
sg9
I103773
sg10
I0
sg11
I0
sg12
I00
sg13
g5
sg14
g5
sg15
g5
sg16
I0
sg17
I0
sg18
I213071
sg19
g5
sg20
g5
sg22
g5
sg23
g5
sg24
g5
sg25
I0
sg26
g5
sg27
I109298
ssS'POWERS WILLIAM'
p156
(dp157
g3
I653
sg4
g5
sg6
g5
sg7
F0.0
sg8
I0
sg9
I0
sg10
I0
sg11
I0
sg12
I00
sg13
I-17500
sg14
g5
sg15
g5
sg16
I0
sg17
F0.0
sg18
g5
sg19
g5
sg20
S'ken.powers@enron.com'
p158
sg22
g5
sg23
I12
sg24
g5
sg25
I26
sg26
g5
sg27
I17500
ssS'GOLD JOSEPH'
p159
(dp160
g3
I0
sg4
g5
sg6
I750000
sg7
I0
sg8
I877611
sg9
I0
sg10
I0
sg11
I0
sg12
I00
sg13
g5
sg14
I441096
sg15
I304805
sg16
I272880
sg17
I0
sg18
I2146973
sg19
g5
sg20
S'joe.gold@enron.com'
p161
sg22
g5
sg23
g5
sg24
I436515
sg25
I0
sg26
I819288
sg27
g5
ssS'BANNANTINE JAMES M'
p162
(dp163
g3
I566
sg4
g5
sg6
g5
sg7
F0.0
sg8
I5243487
sg9
I56301
sg10
I39
sg11
I0
sg12
I00
sg13
I-5104
sg14
I1757552
sg15
g5
sg16
I477
sg17
F0.06890459363957598
sg18
I916197
sg19
g5
sg20
S'james.bannantine@enron.com'
p164
sg22
I-560222
sg23
I465
sg24
I4046157
sg25
I29
sg26
I864523
sg27
g5
ssS'DUNCAN JOHN H'
p165
(dp166
g3
I0
sg4
g5
sg6
g5
sg7
I0
sg8
I371750
sg9
I0
sg10
I0
sg11
I0
sg12
I00
sg13
I-25000
sg14
g5
sg15
g5
sg16
I0
sg17
I0
sg18
I77492
sg19
g5
sg20
g5
sg22
g5
sg23
g5
sg24
I371750
sg25
I0
sg26
g5
sg27
I102492
ssS'SHAPIRO RICHARD S'
p167
(dp168
g3
I15149
sg4
g5
sg6
I650000
sg7
F0.053497942386831275
sg8
I987001
sg9
I137767
sg10
I74
sg11
I65
sg12
I00
sg13
g5
sg14
I379164
sg15
g5
sg16
I269076
sg17
F0.0048848108786058485
sg18
I1057548
sg19
g5
sg20
S'richard.shapiro@enron.com'
p169
sg22
g5
sg23
I4527
sg24
I607837
sg25
I1215
sg26
I705
sg27
g5
ssS'SHERRIFF JOHN R'
p170
(dp171
g3
I3187
sg4
g5
sg6
I1500000
sg7
F0.25
sg8
I3128982
sg9
I0
sg10
I28
sg11
I23
sg12
I00
sg13
g5
sg14
I1293424
sg15
I554422
sg16
I428780
sg17
F0.008785691873235017
sg18
I4335388
sg19
g5
sg20
S'john.sherriff@enron.com'
p172
sg22
g5
sg23
I2103
sg24
I1835558
sg25
I92
sg26
I1852186
sg27
g5
ssS'SHELBY REX'
p173
(dp174
g3
I225
sg4
g5
sg6
I200000
sg7
F0.358974358974359
sg8
I2493616
sg9
I22884
sg10
I13
sg11
I14
sg12
I01
sg13
I-4167
sg14
I869220
sg15
g5
sg16
I211844
sg17
F0.057777777777777775
sg18
I2003885
sg19
g5
sg20
S'rex.shelby@enron.com'
p175
sg22
g5
sg23
I91
sg24
I1624396
sg25
I39
sg26
I1573324
sg27
g5
ssS'LEMAISTRE CHARLES'
p176
(dp177
g3
I0
sg4
g5
sg6
g5
sg7
I0
sg8
I412878
sg9
I0
sg10
I0
sg11
I0
sg12
I00
sg13
I-25000
sg14
g5
sg15
g5
sg16
I0
sg17
I0
sg18
I87492
sg19
g5
sg20
g5
sg22
g5
sg23
g5
sg24
I412878
sg25
I0
sg26
g5
sg27
I112492
ssS'DEFFNER JOSEPH M'
p178
(dp179
g3
I714
sg4
g5
sg6
I600000
sg7
F0.05405405405405406
sg8
I159211
sg9
I41626
sg10
I115
sg11
I4
sg12
I00
sg13
g5
sg14
I141833
sg15
I335349
sg16
I206121
sg17
F0.16106442577030813
sg18
I1208649
sg19
g5
sg20
S'joseph.deffner@enron.com'
p180
sg22
g5
sg23
I552
sg24
I17378
sg25
I74
sg26
I25553
sg27
g5
ssS'KISHKILL JOSEPH G'
p181
(dp182
g3
I0
sg4
g5
sg6
g5
sg7
I0
sg8
I1034346
sg9
I116335
sg10
I0
sg11
I0
sg12
I00
sg13
I-51042
sg14
I1034346
sg15
g5
sg16
I174246
sg17
I0
sg18
I704896
sg19
g5
sg20
S'joe.kishkill@enron.com'
p183
sg22
g5
sg23
g5
sg24
g5
sg25
I0
sg26
I465357
sg27
g5
ssS'WHALLEY LAWRENCE G'
p184
(dp185
g3
I6019
sg4
g5
sg6
I3000000
sg7
F0.04316546762589928
sg8
I6079137
sg9
I57838
sg10
I186
sg11
I24
sg12
I00
sg13
g5
sg14
I2796177
sg15
I808346
sg16
I510364
sg17
F0.03090214321315833
sg18
I4677574
sg19
g5
sg20
S'greg.whalley@enron.com'
p186
sg22
g5
sg23
I3920
sg24
I3282960
sg25
I556
sg26
I301026
sg27
g5
ssS'MCCONNELL MICHAEL S'
p187
(dp188
g3
I3329
sg4
g5
sg6
I1100000
sg7
F0.07075127644055434
sg8
I3101279
sg9
I81364
sg10
I92
sg11
I194
sg12
I00
sg13
g5
sg14
I1478269
sg15
I554422
sg16
I365038
sg17
F0.02763592670471613
sg18
I2101364
sg19
g5
sg20
S'mike.mcconnell@enron.com'
p189
sg22
g5
sg23
I2189
sg24
I1623010
sg25
I2742
sg26
I540
sg27
g5
ssS'PIRO JIM'
p190
(dp191
g3
I58
sg4
g5
sg6
g5
sg7
F0.0625
sg8
I47304
sg9
I0
sg10
I0
sg11
I1
sg12
I00
sg13
g5
sg14
I47304
sg15
g5
sg16
I0
sg17
F0.0
sg18
g5
sg19
g5
sg20
S'jim.piro@enron.com'
p192
sg22
g5
sg23
I3
sg24
g5
sg25
I16
sg26
g5
sg27
g5
ssS'DELAINEY DAVID W'
p193
(dp194
g3
I3093
sg4
g5
sg6
I3000000
sg7
F0.198435972629521
sg8
I3614261
sg9
I86174
sg10
I66
sg11
I609
sg12
I01
sg13
g5
sg14
I1323148
sg15
I1294981
sg16
I365163
sg17
F0.02133850630455868
sg18
I4747979
sg19
g5
sg20
S'david.delainey@enron.com'
p195
sg22
g5
sg23
I2097
sg24
I2291113
sg25
I3069
sg26
I1661
sg27
g5
ssS'SULLIVAN-SHAKLOVITZ COLLEEN'
p196
(dp197
g3
I0
sg4
I181993
sg6
I100000
sg7
I0
sg8
I1362375
sg9
I0
sg10
I0
sg11
I0
sg12
I00
sg13
g5
sg14
g5
sg15
I554422
sg16
I162779
sg17
I0
sg18
I999356
sg19
g5
sg20
g5
sg22
g5
sg23
g5
sg24
I1362375
sg25
I0
sg26
I162
sg27
g5
ssS'WROBEL BRUCE'
p198
(dp199
g3
I0
sg4
g5
sg6
g5
sg7
I0
sg8
I139130
sg9
I0
sg10
I0
sg11
I0
sg12
I00
sg13
g5
sg14
g5
sg15
g5
sg16
I0
sg17
I0
sg18
g5
sg19
g5
sg20
g5
sg22
g5
sg23
g5
sg24
I139130
sg25
I0
sg26
g5
sg27
g5
ssS'LINDHOLM TOD A'
p200
(dp201
g3
I0
sg4
I204075
sg6
I200000
sg7
I0
sg8
I3064208
sg9
I57727
sg10
I0
sg11
I0
sg12
I00
sg13
g5
sg14
I514847
sg15
I175000
sg16
I236457
sg17
I0
sg18
I875889
sg19
g5
sg20
S'tod.lindholm@enron.com'
p202
sg22
g5
sg23
g5
sg24
I2549361
sg25
I0
sg26
I2630
sg27
g5
ssS'MEYER JEROME J'
p203
(dp204
g3
I0
sg4
g5
sg6
g5
sg7
I0
sg8
I0
sg9
I2151
sg10
I0
sg11
I0
sg12
I00
sg13
I-38346
sg14
g5
sg15
g5
sg16
I0
sg17
I0
sg18
I2151
sg19
g5
sg20
g5
sg22
g5
sg23
g5
sg24
g5
sg25
I0
sg26
g5
sg27
I38346
ssS'LAY KENNETH L'
p205
(dp206
g3
I4273
sg4
I202911
sg6
I7000000
sg7
F0.4444444444444444
sg8
I49110078
sg9
I99832
sg10
I123
sg11
I16
sg12
I01
sg13
I-300000
sg14
I14761694
sg15
I3600000
sg16
I1072321
sg17
F0.028785396676807865
sg18
I103559793
sg19
I81525000
sg20
S'kenneth.lay@enron.com'
p207
sg22
g5
sg23
I2411
sg24
I34348384
sg25
I36
sg26
I10359729
sg27
g5
ssS'BUTTS ROBERT H'
p208
(dp209
g3
I0
sg4
g5
sg6
I750000
sg7
I0
sg8
I417619
sg9
I9410
sg10
I0
sg11
I0
sg12
I00
sg13
I-75000
sg14
I417619
sg15
I175000
sg16
I261516
sg17
I0
sg18
I1271582
sg19
g5
sg20
S'bob.butts@enron.com'
p210
sg22
g5
sg23
g5
sg24
g5
sg25
I0
sg26
I150656
sg27
g5
ssS'OLSON CINDY K'
p211
(dp212
g3
I1184
sg4
I77716
sg6
I750000
sg7
F0.28846153846153844
sg8
I2606763
sg9
I63791
sg10
I20
sg11
I15
sg12
I00
sg13
g5
sg14
I969729
sg15
I100000
sg16
I329078
sg17
F0.016891891891891893
sg18
I1321557
sg19
g5
sg20
S'cindy.olson@enron.com'
p213
sg22
g5
sg23
I856
sg24
I1637034
sg25
I52
sg26
I972
sg27
g5
ssS'MCDONALD REBECCA'
p214
(dp215
g3
I894
sg4
g5
sg6
g5
sg7
F0.07692307692307693
sg8
I1691366
sg9
I0
sg10
I54
sg11
I1
sg12
I00
sg13
g5
sg14
I934065
sg15
g5
sg16
I0
sg17
F0.06040268456375839
sg18
g5
sg19
g5
sg20
S'rebecca.mcdonald@enron.com'
p216
sg22
g5
sg23
I720
sg24
I757301
sg25
I13
sg26
g5
sg27
g5
ssS'CUMBERLAND MICHAEL S'
p217
(dp218
g3
I0
sg4
g5
sg6
I325000
sg7
I0
sg8
I207940
sg9
I22344
sg10
I0
sg11
I0
sg12
I00
sg13
g5
sg14
I207940
sg15
I275000
sg16
I184899
sg17
I0
sg18
I807956
sg19
g5
sg20
g5
sg22
g5
sg23
g5
sg24
g5
sg25
I0
sg26
I713
sg27
g5
ssS'GAHN ROBERT S'
p219
(dp220
g3
I0
sg4
I73122
sg6
I509870
sg7
I0
sg8
I318607
sg9
I50080
sg10
I0
sg11
I0
sg12
I00
sg13
I-1042
sg14
I235370
sg15
g5
sg16
I192008
sg17
I0
sg18
I900585
sg19
g5
sg20
g5
sg22
g5
sg23
g5
sg24
I83237
sg25
I0
sg26
I76547
sg27
g5
ssS'MCCLELLAN GEORGE'
p221
(dp222
g3
I1744
sg4
g5
sg6
I900000
sg7
F0.0
sg8
I947861
sg9
I228763
sg10
I52
sg11
I0
sg12
I00
sg13
I-125000
sg14
I441096
sg15
g5
sg16
I263413
sg17
F0.02981651376146789
sg18
I1318763
sg19
g5
sg20
S'george.mcclellan@enron.com'
p223
sg22
g5
sg23
I1469
sg24
I506765
sg25
I49
sg26
I51587
sg27
g5
ssS'HERMANN ROBERT J'
p224
(dp225
g3
I0
sg4
g5
sg6
I700000
sg7
I0
sg8
I668132
sg9
I48357
sg10
I0
sg11
I0
sg12
I00
sg13
I-280000
sg14
I480632
sg15
I150000
sg16
I262663
sg17
I0
sg18
I1297461
sg19
g5
sg20
S'robert.hermann@enron.com'
p226
sg22
g5
sg23
g5
sg24
I187500
sg25
I0
sg26
I416441
sg27
g5
ssS'SCRIMSHAW MATTHEW'
p227
(dp228
g3
I0
sg4
g5
sg6
g5
sg7
I0
sg8
I759557
sg9
I0
sg10
I0
sg11
I0
sg12
I00
sg13
g5
sg14
g5
sg15
g5
sg16
I0
sg17
I0
sg18
g5
sg19
g5
sg20
S'matthew.scrimshaw@enron.com'
p229
sg22
g5
sg23
g5
sg24
I759557
sg25
I0
sg26
g5
sg27
g5
ssS'GATHMANN WILLIAM D'
p230
(dp231
g3
I0
sg4
g5
sg6
g5
sg7
I0
sg8
I1945360
sg9
I0
sg10
I0
sg11
I0
sg12
I00
sg13
g5
sg14
I264013
sg15
g5
sg16
I0
sg17
I0
sg18
g5
sg19
g5
sg20
g5
sg22
I-72419
sg23
g5
sg24
I1753766
sg25
I0
sg26
g5
sg27
g5
ssS'HAEDICKE MARK E'
p232
(dp233
g3
I4009
sg4
I2157527
sg6
I1150000
sg7
F0.03142709943328181
sg8
I803094
sg9
I76169
sg10
I180
sg11
I61
sg12
I00
sg13
I-934484
sg14
I524169
sg15
I983346
sg16
I374125
sg17
F0.04489897730107259
sg18
I3859065
sg19
g5
sg20
S'mark.haedicke@enron.com'
p234
sg22
I-329825
sg23
I1847
sg24
I608750
sg25
I1941
sg26
I52382
sg27
g5
ssS'BOWEN JR RAYMOND M'
p235
(dp236
g3
I1858
sg4
g5
sg6
I1350000
sg7
F0.5555555555555556
sg8
I252055
sg9
I65907
sg10
I140
sg11
I15
sg12
I01
sg13
I-833
sg14
I252055
sg15
I974293
sg16
I278601
sg17
F0.07534983853606028
sg18
I2669589
sg19
g5
sg20
S'raymond.bowen@enron.com'
p237
sg22
g5
sg23
I1593
sg24
g5
sg25
I27
sg26
I1621
sg27
g5
ssS'GILLIS JOHN'
p238
(dp239
g3
I0
sg4
g5
sg6
g5
sg7
I0
sg8
I85641
sg9
I0
sg10
I0
sg11
I0
sg12
I00
sg13
g5
sg14
I75838
sg15
g5
sg16
I0
sg17
I0
sg18
g5
sg19
g5
sg20
g5
sg22
g5
sg23
g5
sg24
I9803
sg25
I0
sg26
g5
sg27
g5
ssS'FITZGERALD JAY L'
p240
(dp241
g3
I936
sg4
g5
sg6
I350000
sg7
F0.5
sg8
I1621236
sg9
I23870
sg10
I1
sg11
I8
sg12
I00
sg13
g5
sg14
I956775
sg15
I556416
sg16
I199157
sg17
F0.0010683760683760685
sg18
I1414857
sg19
g5
sg20
S'jay.fitzgerald@enron.com'
p242
sg22
g5
sg23
I723
sg24
I664461
sg25
I16
sg26
I285414
sg27
g5
ssS'MORAN MICHAEL P'
p243
(dp244
g3
I672
sg4
g5
sg6
g5
sg7
F0.0
sg8
I221141
sg9
I0
sg10
I0
sg11
I0
sg12
I00
sg13
g5
sg14
I161602
sg15
g5
sg16
I0
sg17
F0.0
sg18
g5
sg19
g5
sg20
S'michael.moran@enron.com'
p245
sg22
g5
sg23
I127
sg24
I59539
sg25
I19
sg26
g5
sg27
g5
ssS'REDMOND BRIAN L'
p246
(dp247
g3
I1671
sg4
g5
sg6
g5
sg7
F0.22171945701357465
sg8
I7890324
sg9
I14689
sg10
I204
sg11
I49
sg12
I00
sg13
g5
sg14
I381285
sg15
g5
sg16
I96840
sg17
F0.12208258527827648
sg18
I111529
sg19
g5
sg20
S'brian.redmond@enron.com'
p248
sg22
g5
sg23
I1063
sg24
I7509039
sg25
I221
sg26
g5
sg27
g5
ssS'BAZELIDES PHILIP J'
p249
(dp250
g3
I0
sg4
I684694
sg6
g5
sg7
I0
sg8
I1599641
sg9
I0
sg10
I0
sg11
I0
sg12
I00
sg13
g5
sg14
g5
sg15
I93750
sg16
I80818
sg17
I0
sg18
I860136
sg19
g5
sg20
g5
sg22
g5
sg23
g5
sg24
I1599641
sg25
I0
sg26
I874
sg27
g5
ssS'BELDEN TIMOTHY N'
p251
(dp252
g3
I7991
sg4
I2144013
sg6
I5249999
sg7
F0.2231404958677686
sg8
I1110705
sg9
I17355
sg10
I228
sg11
I108
sg12
I01
sg13
I-2334434
sg14
I157569
sg15
g5
sg16
I213999
sg17
F0.028532098610937303
sg18
I5501630
sg19
g5
sg20
S'tim.belden@enron.com'
p253
sg22
g5
sg23
I5521
sg24
I953136
sg25
I484
sg26
I210698
sg27
g5
ssS'DURAN WILLIAM D'
p254
(dp255
g3
I904
sg4
g5
sg6
I750000
sg7
F0.25
sg8
I1640910
sg9
I25785
sg10
I106
sg11
I3
sg12
I00
sg13
g5
sg14
I189041
sg15
I1105218
sg16
I210692
sg17
F0.1172566371681416
sg18
I2093263
sg19
g5
sg20
S'w.duran@enron.com'
p256
sg22
g5
sg23
I599
sg24
I1451869
sg25
I12
sg26
I1568
sg27
g5
ssS'THORN TERENCE H'
p257
(dp258
g3
I266
sg4
I16586
sg6
g5
sg7
F0.0
sg8
I4817796
sg9
I46145
sg10
I0
sg11
I0
sg12
I00
sg13
g5
sg14
I365320
sg15
I200000
sg16
I222093
sg17
F0.0
sg18
I911453
sg19
g5
sg20
S'terence.thorn@enron.com'
p259
sg22
g5
sg23
I73
sg24
I4452476
sg25
I41
sg26
I426629
sg27
g5
ssS'FASTOW ANDREW S'
p260
(dp261
g3
I0
sg4
g5
sg6
I1300000
sg7
I0
sg8
I1794412
sg9
I55921
sg10
I0
sg11
I0
sg12
I01
sg13
I-1386055
sg14
I1794412
sg15
I1736055
sg16
I440698
sg17
I0
sg18
I2424083
sg19
g5
sg20
S'andrew.fastow@enron.com'
p262
sg22
g5
sg23
g5
sg24
g5
sg25
I0
sg26
I277464
sg27
g5
ssS'FOY JOE'
p263
(dp264
g3
I57
sg4
I181755
sg6
g5
sg7
F0.0
sg8
I343434
sg9
I0
sg10
I0
sg11
I0
sg12
I00
sg13
g5
sg14
g5
sg15
g5
sg16
I0
sg17
F0.0
sg18
I181755
sg19
g5
sg20
S'tracy.foy@enron.com'
p265
sg22
g5
sg23
I2
sg24
I343434
sg25
I13
sg26
g5
sg27
g5
ssS'CALGER CHRISTOPHER F'
p266
(dp267
g3
I2598
sg4
g5
sg6
I1250000
sg7
F0.1736111111111111
sg8
I126027
sg9
I35818
sg10
I199
sg11
I25
sg12
I01
sg13
I-262500
sg14
I126027
sg15
I375304
sg16
I240189
sg17
F0.07659738260200154
sg18
I1639297
sg19
g5
sg20
S'christopher.calger@enron.com'
p268
sg22
g5
sg23
I2188
sg24
g5
sg25
I144
sg26
I486
sg27
g5
ssS'RICE KENNETH D'
p269
(dp270
g3
I905
sg4
g5
sg6
I1750000
sg7
F0.2222222222222222
sg8
I22542539
sg9
I46950
sg10
I42
sg11
I4
sg12
I01
sg13
I-3504386
sg14
I2748364
sg15
I1617011
sg16
I420636
sg17
F0.04640883977900553
sg18
I505050
sg19
g5
sg20
S'ken.rice@enron.com'
p271
sg22
g5
sg23
I864
sg24
I19794175
sg25
I18
sg26
I174839
sg27
g5
ssS'KAMINSKI WINCENTY J'
p272
(dp273
g3
I4607
sg4
g5
sg6
I400000
sg7
F0.011901447661469933
sg8
I976037
sg9
I83585
sg10
I41
sg11
I171
sg12
I00
sg13
g5
sg14
I126027
sg15
I323466
sg16
I275101
sg17
F0.008899500759713479
sg18
I1086821
sg19
g5
sg20
S'vince.kaminski@enron.com'
p274
sg22
g5
sg23
I583
sg24
I850010
sg25
I14368
sg26
I4669
sg27
g5
ssS'LOCKHART EUGENE E'
p275
(dp276
g3
I0
sg4
g5
sg6
g5
sg7
I0
sg8
I0
sg9
I0
sg10
I0
sg11
I0
sg12
I00
sg13
g5
sg14
g5
sg15
g5
sg16
I0
sg17
I0
sg18
g5
sg19
g5
sg20
g5
sg22
g5
sg23
g5
sg24
g5
sg25
I0
sg26
g5
sg27
g5
ssS'COX DAVID'
p277
(dp278
g3
I102
sg4
g5
sg6
I800000
sg7
F0.12121212121212122
sg8
I495633
sg9
I27861
sg10
I0
sg11
I4
sg12
I00
sg13
I-41250
sg14
I378082
sg15
g5
sg16
I314288
sg17
F0.0
sg18
I1101393
sg19
g5
sg20
S'chip.cox@enron.com'
p279
sg22
g5
sg23
I71
sg24
I117551
sg25
I33
sg26
I494
sg27
g5
ssS'OVERDYKE JR JERE C'
p280
(dp281
g3
I0
sg4
g5
sg6
g5
sg7
I0
sg8
I7307594
sg9
I18834
sg10
I0
sg11
I0
sg12
I00
sg13
g5
sg14
I2041016
sg15
I135836
sg16
I94941
sg17
I0
sg18
I249787
sg19
g5
sg20
S'jere.overdyke@enron.com'
p282
sg22
g5
sg23
g5
sg24
I5266578
sg25
I0
sg26
I176
sg27
g5
ssS'PEREIRA PAULO V. FERRAZ'
p283
(dp284
g3
I0
sg4
g5
sg6
g5
sg7
I0
sg8
I0
sg9
I27942
sg10
I0
sg11
I0
sg12
I00
sg13
I-101250
sg14
g5
sg15
g5
sg16
I0
sg17
I0
sg18
I27942
sg19
g5
sg20
g5
sg22
g5
sg23
g5
sg24
g5
sg25
I0
sg26
g5
sg27
I101250
ssS'STABLER FRANK'
p285
(dp286
g3
I0
sg4
g5
sg6
I500000
sg7
I0
sg8
I511734
sg9
I16514
sg10
I0
sg11
I0
sg12
I00
sg13
g5
sg14
I511734
sg15
g5
sg16
I239502
sg17
I0
sg18
I1112087
sg19
g5
sg20
S'frank.stabler@enron.com'
p287
sg22
g5
sg23
g5
sg24
g5
sg25
I0
sg26
I356071
sg27
g5
ssS'SKILLING JEFFREY K'
p288
(dp289
g3
I3627
sg4
g5
sg6
I5600000
sg7
F0.2777777777777778
sg8
I26093672
sg9
I29336
sg10
I88
sg11
I30
sg12
I01
sg13
g5
sg14
I6843672
sg15
I1920000
sg16
I1111258
sg17
F0.0242624758753791
sg18
I8682716
sg19
g5
sg20
S'jeff.skilling@enron.com'
p290
sg22
g5
sg23
I2042
sg24
I19250000
sg25
I108
sg26
I22122
sg27
g5
ssS'BLAKE JR. NORMAN P'
p291
(dp292
g3
I0
sg4
g5
sg6
g5
sg7
I0
sg8
I0
sg9
I1279
sg10
I0
sg11
I0
sg12
I00
sg13
I-113784
sg14
g5
sg15
g5
sg16
I0
sg17
I0
sg18
I1279
sg19
g5
sg20
g5
sg22
g5
sg23
g5
sg24
g5
sg25
I0
sg26
g5
sg27
I113784
ssS'SHERRICK JEFFREY B'
p293
(dp294
g3
I613
sg4
g5
sg6
g5
sg7
F0.72
sg8
I1832468
sg9
I0
sg10
I39
sg11
I18
sg12
I00
sg13
g5
sg14
I405999
sg15
g5
sg16
I0
sg17
F0.0636215334420881
sg18
g5
sg19
g5
sg20
S'jeffrey.sherrick@enron.com'
p295
sg22
g5
sg23
I583
sg24
I1426469
sg25
I25
sg26
g5
sg27
g5
ssS'PRENTICE JAMES'
p296
(dp297
g3
I0
sg4
I564348
sg6
g5
sg7
I0
sg8
I1095040
sg9
I0
sg10
I0
sg11
I0
sg12
I00
sg13
g5
sg14
I208809
sg15
g5
sg16
I0
sg17
I0
sg18
I564348
sg19
g5
sg20
S'james.prentice@enron.com'
p298
sg22
g5
sg23
g5
sg24
I886231
sg25
I0
sg26
g5
sg27
g5
ssS'GRAY RODNEY'
p299
(dp300
g3
I0
sg4
I93585
sg6
g5
sg7
I0
sg8
I0
sg9
I0
sg10
I0
sg11
I0
sg12
I00
sg13
g5
sg14
g5
sg15
I365625
sg16
I6615
sg17
I0
sg18
I1146658
sg19
g5
sg20
g5
sg22
g5
sg23
g5
sg24
g5
sg25
I0
sg26
I680833
sg27
g5
ssS'PICKERING MARK R'
p301
(dp302
g3
I898
sg4
g5
sg6
I300000
sg7
F0.0
sg8
I28798
sg9
I31653
sg10
I7
sg11
I0
sg12
I00
sg13
g5
sg14
g5
sg15
g5
sg16
I655037
sg17
F0.0077951002227171495
sg18
I1386690
sg19
I400000
sg20
S'mark.pickering@enron.com'
p303
sg22
g5
sg23
I728
sg24
I28798
sg25
I67
sg26
g5
sg27
g5
ssS'NOLES JAMES L'
p304
(dp305
g3
I0
sg4
I774401
sg6
g5
sg7
I0
sg8
I368705
sg9
I0
sg10
I0
sg11
I0
sg12
I00
sg13
g5
sg14
I463261
sg15
g5
sg16
I0
sg17
I0
sg18
I774401
sg19
g5
sg20
g5
sg22
I-94556
sg23
g5
sg24
g5
sg25
I0
sg26
g5
sg27
g5
ssS'KEAN STEVEN J'
p306
(dp307
g3
I12754
sg4
g5
sg6
I1000000
sg7
F0.05725699067909454
sg8
I6153642
sg9
I41953
sg10
I140
sg11
I387
sg12
I00
sg13
g5
sg14
I4131594
sg15
I300000
sg16
I404338
sg17
F0.010976948408342482
sg18
I1747522
sg19
g5
sg20
S'steven.kean@enron.com'
p308
sg22
g5
sg23
I3639
sg24
I2022048
sg25
I6759
sg26
I1231
sg27
g5
ssS'FOWLER PEGGY'
p309
(dp310
g3
I517
sg4
g5
sg6
g5
sg7
F0.0
sg8
I1884748
sg9
I0
sg10
I0
sg11
I0
sg12
I00
sg13
g5
sg14
I560170
sg15
g5
sg16
I0
sg17
F0.0
sg18
g5
sg19
g5
sg20
S'kulvinder.fowler@enron.com'
p311
sg22
g5
sg23
I10
sg24
I1324578
sg25
I36
sg26
g5
sg27
g5
ssS'WASAFF GEORGE'
p312
(dp313
g3
I400
sg4
I831299
sg6
I325000
sg7
F0.23333333333333334
sg8
I2056427
sg9
I0
sg10
I22
sg11
I7
sg12
I00
sg13
I-583325
sg14
I388167
sg15
I200000
sg16
I259996
sg17
F0.055
sg18
I1034395
sg19
g5
sg20
S'george.wasaff@enron.com'
p314
sg22
g5
sg23
I337
sg24
I1668260
sg25
I30
sg26
I1425
sg27
g5
ssS'WHITE JR THOMAS E'
p315
(dp316
g3
I0
sg4
g5
sg6
I450000
sg7
I0
sg8
I15144123
sg9
I81353
sg10
I0
sg11
I0
sg12
I00
sg13
g5
sg14
I13847074
sg15
g5
sg16
I317543
sg17
I0
sg18
I1934359
sg19
g5
sg20
S'thomas.white@enron.com'
p317
sg22
g5
sg23
g5
sg24
I1297049
sg25
I0
sg26
I1085463
sg27
g5
ssS'CHRISTODOULOU DIOMEDES'
p318
(dp319
g3
I0
sg4
g5
sg6
g5
sg7
I0
sg8
I6077885
sg9
I0
sg10
I0
sg11
I0
sg12
I00
sg13
g5
sg14
I950730
sg15
g5
sg16
I0
sg17
I0
sg18
g5
sg19
g5
sg20
S'diomedes.christodoulou@enron.com'
p320
sg22
g5
sg23
g5
sg24
I5127155
sg25
I0
sg26
g5
sg27
g5
ssS'ALLEN PHILLIP K'
p321
(dp322
g3
I2902
sg4
I2869717
sg6
I4175000
sg7
F0.029612756264236904
sg8
I1729541
sg9
I13868
sg10
I47
sg11
I65
sg12
I00
sg13
I-3081055
sg14
I126027
sg15
I304805
sg16
I201955
sg17
F0.016195727084769126
sg18
I4484442
sg19
g5
sg20
S'phillip.allen@enron.com'
p323
sg22
I-126027
sg23
I1407
sg24
I1729541
sg25
I2195
sg26
I152
sg27
g5
ssS'SHARP VICTORIA T'
p324
(dp325
g3
I3136
sg4
I187469
sg6
I600000
sg7
F0.04411764705882353
sg8
I494136
sg9
I116337
sg10
I24
sg11
I6
sg12
I00
sg13
g5
sg14
I213063
sg15
I422158
sg16
I248146
sg17
F0.007653061224489796
sg18
I1576511
sg19
g5
sg20
S'vicki.sharp@enron.com'
p326
sg22
g5
sg23
I2477
sg24
I281073
sg25
I136
sg26
I2401
sg27
g5
ssS'JAEDICKE ROBERT'
p327
(dp328
g3
I0
sg4
g5
sg6
g5
sg7
I0
sg8
I431750
sg9
I0
sg10
I0
sg11
I0
sg12
I00
sg13
I-25000
sg14
I44093
sg15
g5
sg16
I0
sg17
I0
sg18
I83750
sg19
g5
sg20
g5
sg22
I-44093
sg23
g5
sg24
I431750
sg25
I0
sg26
g5
sg27
I108750
ssS'WINOKUR JR. HERBERT S'
p329
(dp330
g3
I0
sg4
g5
sg6
g5
sg7
I0
sg8
I0
sg9
I1413
sg10
I0
sg11
I0
sg12
I00
sg13
I-25000
sg14
g5
sg15
g5
sg16
I0
sg17
I0
sg18
I84992
sg19
g5
sg20
g5
sg22
g5
sg23
g5
sg24
g5
sg25
I0
sg26
g5
sg27
I108579
ssS'BROWN MICHAEL'
p331
(dp332
g3
I1486
sg4
g5
sg6
g5
sg7
F0.024390243902439025
sg8
I0
sg9
I49288
sg10
I13
sg11
I1
sg12
I00
sg13
g5
sg14
g5
sg15
g5
sg16
I0
sg17
F0.008748317631224764
sg18
I49288
sg19
g5
sg20
S'michael.brown@enron.com'
p333
sg22
g5
sg23
I761
sg24
g5
sg25
I41
sg26
g5
sg27
g5
ssS'BADUM JAMES P'
p334
(dp335
g3
I0
sg4
I178980
sg6
g5
sg7
I0
sg8
I257817
sg9
I3486
sg10
I0
sg11
I0
sg12
I00
sg13
g5
sg14
g5
sg15
g5
sg16
I0
sg17
I0
sg18
I182466
sg19
g5
sg20
g5
sg22
g5
sg23
g5
sg24
I257817
sg25
I0
sg26
g5
sg27
g5
ssS'HUGHES JAMES A'
p336
(dp337
g3
I719
sg4
g5
sg6
g5
sg7
F0.14705882352941177
sg8
I1118394
sg9
I0
sg10
I35
sg11
I5
sg12
I00
sg13
g5
sg14
I363428
sg15
g5
sg16
I0
sg17
F0.048678720445062586
sg18
g5
sg19
g5
sg20
S'james.hughes@enron.com'
p338
sg22
g5
sg23
I589
sg24
I754966
sg25
I34
sg26
g5
sg27
g5
ssS'REYNOLDS LAWRENCE'
p339
(dp340
g3
I0
sg4
I51365
sg6
I100000
sg7
I0
sg8
I4221891
sg9
I8409
sg10
I0
sg11
I0
sg12
I00
sg13
I-200000
sg14
I201483
sg15
I156250
sg16
I76399
sg17
I0
sg18
I394475
sg19
g5
sg20
g5
sg22
I-140264
sg23
g5
sg24
I4160672
sg25
I0
sg26
I202052
sg27
g5
ssS'DIMICHELE RICHARD G'
p341
(dp342
g3
I0
sg4
g5
sg6
I1000000
sg7
I0
sg8
I8317782
sg9
I35812
sg10
I0
sg11
I0
sg12
I00
sg13
g5
sg14
I126027
sg15
I694862
sg16
I262788
sg17
I0
sg18
I2368151
sg19
g5
sg20
S'richard.dimichele@enron.com'
p343
sg22
g5
sg23
g5
sg24
I8191755
sg25
I0
sg26
I374689
sg27
g5
ssS'BHATNAGAR SANJAY'
p344
(dp345
g3
I523
sg4
g5
sg6
g5
sg7
F0.034482758620689655
sS'total_stock_value'
p346
I0
sg9
I0
sg10
I0
sg11
I1
sg12
I00
sg13
g5
sg14
I-2604490
sg15
g5
sg16
I0
sg17
F0.0
sg18
I15456290
sg19
g5
sg20
S'sanjay.bhatnagar@enron.com'
p347
sg22
I15456290
sg23
I463
sg24
I2604490
sg25
I29
sg26
I137864
sg27
I137864
ssS'CARTER REBECCA C'
p348
(dp349
g3
I312
sg4
g5
sg6
I300000
sg7
F0.4666666666666667
sg8
I0
sg9
I0
sg10
I29
sg11
I7
sg12
I00
sg13
I-159792
sg14
I307301
sg15
I75000
sg16
I261809
sg17
F0.09294871794871795
sg18
I477557
sg19
g5
sg20
S'rebecca.carter@enron.com'
p350
sg22
I-307301
sg23
I196
sg24
g5
sg25
I15
sg26
I540
sg27
g5
ssS'BUCHANAN HAROLD G'
p351
(dp352
g3
I1088
sg4
g5
sg6
I500000
sg7
F0.0
sg8
I1014505
sg9
I600
sg10
I0
sg11
I0
sg12
I00
sg13
g5
sg14
I189041
sg15
I304805
sg16
I248017
sg17
F0.0
sg18
I1054637
sg19
g5
sg20
S'john.buchanan@enron.com'
p353
sg22
g5
sg23
I23
sg24
I825464
sg25
I125
sg26
I1215
sg27
g5
ssS'YEAP SOON'
p354
(dp355
g3
I0
sg4
g5
sg6
g5
sg7
I0
sg8
I192758
sg9
I55097
sg10
I0
sg11
I0
sg12
I00
sg13
g5
sg14
g5
sg15
g5
sg16
I0
sg17
I0
sg18
I55097
sg19
g5
sg20
g5
sg22
g5
sg23
g5
sg24
I192758
sg25
I0
sg26
g5
sg27
g5
ssS'MURRAY JULIA H'
p356
(dp357
g3
I2192
sg4
g5
sg6
I400000
sg7
F0.044444444444444446
sg8
I597461
sg9
I57580
sg10
I11
sg11
I2
sg12
I00
sg13
g5
sg14
I196983
sg15
I125000
sg16
I229284
sg17
F0.005018248175182482
sg18
I812194
sg19
g5
sg20
S'julia.murray@enron.com'
p358
sg22
g5
sg23
I395
sg24
I400478
sg25
I45
sg26
I330
sg27
g5
ssS'GARLAND C KEVIN'
p359
(dp360
g3
I209
sg4
g5
sg6
I850000
sg7
F0.6136363636363636
sg8
I896153
sg9
I48405
sg10
I10
sg11
I27
sg12
I00
sg13
g5
sg14
I259907
sg15
I375304
sg16
I231946
sg17
F0.04784688995215311
sg18
I1566469
sg19
g5
sg20
S'kevin.garland@enron.com'
p361
sg22
g5
sg23
I178
sg24
I636246
sg25
I44
sg26
I60814
sg27
g5
ssS'DODSON KEITH'
p362
(dp363
g3
I176
sg4
g5
sg6
I70000
sg7
F0.21428571428571427
sg8
I0
sg9
I28164
sg10
I10
sg11
I3
sg12
I00
sg13
g5
sg14
g5
sg15
g5
sg16
I221003
sg17
F0.056818181818181816
sg18
I319941
sg19
g5
sg20
S'keith.dodson@enron.com'
p364
sg22
g5
sg23
I114
sg24
g5
sg25
I14
sg26
I774
sg27
g5
ssS'YEAGER F SCOTT'
p365
(dp366
g3
I0
sg4
g5
sg6
g5
sg7
I0
sg8
I11884758
sg9
I53947
sg10
I0
sg11
I0
sg12
I01
sg13
g5
sg14
I3576206
sg15
g5
sg16
I158403
sg17
I0
sg18
I360300
sg19
g5
sg20
S'scott.yeager@enron.com'
p367
sg22
g5
sg23
g5
sg24
I8308552
sg25
I0
sg26
I147950
sg27
g5
ssS'HIRKO JOSEPH'
p368
(dp369
g3
I0
sg4
I10259
sg6
g5
sg7
I0
sg8
I30766064
sg9
I77978
sg10
I0
sg11
I0
sg12
I01
sg13
g5
sg14
g5
sg15
g5
sg16
I0
sg17
I0
sg18
I91093
sg19
g5
sg20
S'joe.hirko@enron.com'
p370
sg22
g5
sg23
g5
sg24
I30766064
sg25
I0
sg26
I2856
sg27
g5
ssS'DIETRICH JANET R'
p371
(dp372
g3
I2572
sg4
g5
sg6
I600000
sg7
F0.2222222222222222
sg8
I1865087
sg9
I3475
sg10
I305
sg11
I14
sg12
I00
sg13
g5
sg14
I315068
sg15
I556416
sg16
I250100
sg17
F0.11858475894245724
sg18
I1410464
sg19
g5
sg20
S'janet.dietrich@enron.com'
p373
sg22
g5
sg23
I1902
sg24
I1550019
sg25
I63
sg26
I473
sg27
g5
ssS'DERRICK JR. JAMES V'
p374
(dp375
g3
I2181
sg4
g5
sg6
I800000
sg7
F0.022002200220022004
sg8
I8831913
sg9
I51124
sg10
I64
sg11
I20
sg12
I00
sg13
I-1284000
sg14
I1787380
sg15
I484000
sg16
I492375
sg17
F0.029344337459880788
sg18
I550981
sg19
g5
sg20
S'james.derrick@enron.com'
p376
sg22
I-1787380
sg23
I1401
sg24
I8831913
sg25
I909
sg26
I7482
sg27
g5
ssS'FREVERT MARK A'
p377
(dp378
g3
I3275
sg4
I6426990
sg6
I2000000
sg7
F0.2857142857142857
sg8
I14622185
sg9
I86987
sg10
I242
sg11
I6
sg12
I00
sg13
I-3367011
sg14
I4188667
sg15
I1617011
sg16
I1060932
sg17
F0.07389312977099237
sg18
I17252530
sg19
I2000000
sg20
S'mark.frevert@enron.com'
p379
sg22
g5
sg23
I2979
sg24
I10433518
sg25
I21
sg26
I7427621
sg27
g5
ssS'PAI LOU L'
p380
(dp381
g3
I0
sg4
g5
sg6
I1000000
sg7
I0
sg8
I23817930
sg9
I32047
sg10
I0
sg11
I0
sg12
I00
sg13
g5
sg14
I8453763
sg15
g5
sg16
I261879
sg17
I0
sg18
I3123383
sg19
g5
sg20
S'lou.pai@enron.com'
p382
sg22
g5
sg23
g5
sg24
I15364167
sg25
I0
sg26
I1829457
sg27
g5
ssS'BAY FRANKLIN R'
p383
(dp384
g3
I0
sg4
I260455
sg6
I400000
sg7
I0
sg8
I63014
sg9
I129142
sg10
I0
sg11
I0
sg12
I00
sg13
I-201641
sg14
I145796
sg15
g5
sg16
I239671
sg17
I0
sg18
I827696
sg19
g5
sg20
S'frank.bay@enron.com'
p385
sg22
I-82782
sg23
g5
sg24
g5
sg25
I0
sg26
I69
sg27
g5
ssS'HAYSLETT RODERICK J'
p386
(dp387
g3
I2649
sg4
g5
sg6
g5
sg7
F0.03581526861451461
sg8
I346663
sg9
I0
sg10
I35
sg11
I38
sg12
I00
sg13
g5
sg14
I346663
sg15
g5
sg16
I0
sg17
F0.01321253303133258
sg18
g5
sg19
g5
sg20
S'rod.hayslett@enron.com'
p388
sg22
g5
sg23
I571
sg24
g5
sg25
I1061
sg26
g5
sg27
g5
ssS'FUGH JOHN L'
p389
(dp390
g3
I0
sg4
I50591
sg6
g5
sg7
I0
sg8
I176378
sg9
I0
sg10
I0
sg11
I0
sg12
I00
sg13
g5
sg14
g5
sg15
g5
sg16
I0
sg17
I0
sg18
I50591
sg19
g5
sg20
g5
sg22
g5
sg23
g5
sg24
I176378
sg25
I0
sg26
g5
sg27
g5
ssS'FALLON JAMES B'
p391
(dp392
g3
I1755
sg4
g5
sg6
I2500000
sg7
F0.49333333333333335
sg8
I2332399
sg9
I95924
sg10
I42
sg11
I37
sg12
I00
sg13
g5
sg14
I1392142
sg15
I374347
sg16
I304588
sg17
F0.023931623931623933
sg18
I3676340
sg19
g5
sg20
S'jim.fallon@enron.com'
p393
sg22
g5
sg23
I1604
sg24
I940257
sg25
I75
sg26
I401481
sg27
g5
ssS'KOENIG MARK E'
p394
(dp395
g3
I2374
sg4
g5
sg6
I700000
sg7
F0.2459016393442623
sg8
I1920055
sg9
I127017
sg10
I53
sg11
I15
sg12
I01
sg13
g5
sg14
I1248318
sg15
I300000
sg16
I309946
sg17
F0.02232518955349621
sg18
I1587421
sg19
g5
sg20
S'mark.koenig@enron.com'
p396
sg22
g5
sg23
I2271
sg24
I671737
sg25
I61
sg26
I150458
sg27
g5
ssS'SAVAGE FRANK'
p397
(dp398
g3
I0
sg4
g5
sg6
g5
sg7
I0
sg8
I0
sg9
I0
sg10
I0
sg11
I0
sg12
I00
sg13
I-121284
sg14
g5
sg15
g5
sg16
I0
sg17
I0
sg18
I3750
sg19
g5
sg20
g5
sg22
g5
sg23
g5
sg24
g5
sg25
I0
sg26
g5
sg27
I125034
ssS'IZZO LAWRENCE L'
p399
(dp400
g3
I496
sg4
g5
sg6
g5
sg7
F0.2631578947368421
sg8
I5819980
sg9
I28093
sg10
I28
sg11
I5
sg12
I00
sg13
g5
sg14
I3654808
sg15
I312500
sg16
I85274
sg17
F0.056451612903225805
sg18
I1979596
sg19
g5
sg20
S'larry.izzo@enron.com'
p401
sg22
g5
sg23
I437
sg24
I2165172
sg25
I19
sg26
I1553729
sg27
g5
ssS'TILNEY ELIZABETH A'
p402
(dp403
g3
I460
sg4
g5
sg6
I300000
sg7
F0.5789473684210527
sg8
I1168042
sg9
I0
sg10
I10
sg11
I11
sg12
I00
sg13
I-575000
sg14
I576792
sg15
I275000
sg16
I247338
sg17
F0.021739130434782608
sg18
I399393
sg19
g5
sg20
S'elizabeth.tilney@enron.com'
p404
sg22
g5
sg23
I379
sg24
I591250
sg25
I19
sg26
I152055
sg27
g5
ssS'MARTIN AMANDA K'
p405
(dp406
g3
I1522
sg4
I85430
sg6
g5
sg7
F0.0
sg8
I2070306
sg9
I8211
sg10
I8
sg11
I0
sg12
I00
sg13
g5
sg14
g5
sg15
I5145434
sg16
I349487
sg17
F0.005256241787122208
sg18
I8407016
sg19
g5
sg20
S'a..martin@enron.com'
p407
sg22
g5
sg23
I477
sg24
I2070306
sg25
I230
sg26
I2818454
sg27
g5
ssS'BUY RICHARD B'
p408
(dp409
g3
I3523
sg4
I649584
sg6
I900000
sg7
F0.06742640075973409
sg8
I3444470
sg9
I0
sg10
I156
sg11
I71
sg12
I00
sg13
I-694862
sg14
I901657
sg15
I769862
sg16
I330546
sg17
F0.04428044280442804
sg18
I2355702
sg19
g5
sg20
S'rick.buy@enron.com'
p410
sg22
g5
sg23
I2333
sg24
I2542813
sg25
I1053
sg26
I400572
sg27
g5
ssS'GRAMM WENDY L'
p411
(dp412
g3
I0
sg4
g5
sg6
g5
sg7
I0
sg8
I0
sg9
I0
sg10
I0
sg11
I0
sg12
I00
sg13
g5
sg14
g5
sg15
g5
sg16
I0
sg17
I0
sg18
I119292
sg19
g5
sg20
g5
sg22
g5
sg23
g5
sg24
g5
sg25
I0
sg26
g5
sg27
I119292
ssS'CAUSEY RICHARD A'
p413
(dp414
g3
I1892
sg4
g5
sg6
I1000000
sg7
F0.24489795918367346
sg8
I2502063
sg9
I30674
sg10
I58
sg11
I12
sg12
I01
sg13
I-235000
sg14
I2502063
sg15
I350000
sg16
I415189
sg17
F0.0306553911205074
sg18
I1868758
sg19
g5
sg20
S'richard.causey@enron.com'
p415
sg22
g5
sg23
I1585
sg24
g5
sg25
I49
sg26
I307895
sg27
g5
ssS'TAYLOR MITCHELL S'
p416
(dp417
g3
I533
sg4
I227449
sg6
I600000
sg7
F0.0
sg8
I3745048
sg9
I0
sg10
I0
sg11
I0
sg12
I00
sg13
g5
sg14
I563798
sg15
g5
sg16
I265214
sg17
F0.0
sg18
I1092663
sg19
g5
sg20
S'mitchell.taylor@enron.com'
p418
sg22
g5
sg23
I300
sg24
I3181250
sg25
I29
sg26
g5
sg27
g5
ssS'DONAHUE JR JEFFREY M'
p419
(dp420
g3
I865
sg4
g5
sg6
I800000
sg7
F0.5
sg8
I1080988
sg9
I96268
sg10
I188
sg11
I11
sg12
I00
sg13
I-300000
sg14
I315068
sg15
g5
sg16
I278601
sg17
F0.21734104046242775
sg18
I875760
sg19
g5
sg20
S'jeff.donahue@enron.com'
p421
sg22
g5
sg23
I772
sg24
I765920
sg25
I22
sg26
I891
sg27
g5
ssS'GLISAN JR BEN F'
p422
(dp423
g3
I873
sg4
g5
sg6
I600000
sg7
F0.375
sg8
I778546
sg9
I125978
sg10
I52
sg11
I6
sg12
I01
sg13
g5
sg14
I393818
sg15
I71023
sg16
I274975
sg17
F0.05956471935853379
sg18
I1272284
sg19
g5
sg20
S'ben.glisan@enron.com'
p424
sg22
g5
sg23
I874
sg24
I384728
sg25
I16
sg26
I200308
sg27
g5
ss.